Certificate:
    Data:
        Version: 3 (0x2)
        Serial Number: 1 (0x1)
        Signature Algorithm: sha256WithRSAEncryption
        Issuer: CN=mindsquare Lokale Zertifizierungsstelle, ST=NRW, C=DE/emailAddress=info@mindsquare.de, O=mindsquare, OU=Development
        Validity
            Not Before: Feb  3 17:06:06 2021 GMT
            Not After : Feb  2 17:06:06 2026 GMT
        Subject: CN=localhost, ST=NRW, C=DE/emailAddress=info@mindsquare.de, O=mindsquare, OU=default
        Subject Public Key Info:
            Public Key Algorithm: rsaEncryption
                RSA Public-Key: (2048 bit)
                Modulus:
                    00:bc:b2:27:d2:be:d1:48:49:c5:0b:88:06:20:91:
                    54:71:2c:89:86:06:c4:fd:da:5b:55:62:6f:10:d7:
                    38:df:eb:70:b2:6a:94:14:8f:12:64:c7:90:43:bd:
                    84:eb:b0:e0:de:88:49:4b:7a:79:7e:f3:90:87:d3:
                    aa:21:37:0e:76:22:bd:a8:f3:a8:8e:33:c2:01:9f:
                    86:36:51:5b:44:fc:8b:75:7c:3f:9c:20:5b:2a:dc:
                    09:f9:1e:36:94:18:a7:d1:a3:76:6c:39:c2:10:51:
                    66:41:11:5f:cd:69:f7:37:65:1a:f1:a1:1d:7f:b5:
                    83:46:4a:93:0a:c6:2f:69:3b:f4:ab:7e:02:c6:89:
                    29:11:3b:a9:24:39:9b:13:e6:bb:27:62:59:8d:f7:
                    b2:8c:d9:3c:cb:f2:42:cb:de:82:de:e8:61:11:18:
                    56:c3:ab:04:17:a4:7c:91:dc:8f:2a:74:66:38:87:
                    a6:9a:94:b7:14:32:68:19:c2:ab:23:2f:c3:cc:a6:
                    41:dc:30:d2:1b:a0:eb:2c:5f:75:29:8c:00:a2:e4:
                    6f:96:63:27:52:df:15:93:6c:a7:e5:e3:9d:0a:98:
                    8f:dc:5b:bf:62:91:69:78:90:7f:8d:33:f9:be:06:
                    cb:20:32:26:c2:ee:da:3e:2e:b8:26:36:3b:fe:73:
                    32:65
                Exponent: 65537 (0x10001)
        X509v3 extensions:
            X509v3 Basic Constraints: 
                CA:FALSE
            X509v3 Key Usage: 
                Digital Signature, Non Repudiation, Key Encipherment
            X509v3 Subject Alternative Name: 
                DNS:localhost
    Signature Algorithm: sha256WithRSAEncryption
         b8:5c:0e:6d:db:06:97:67:a9:9a:06:54:8c:84:c7:8d:84:6f:
         0f:48:31:c5:a3:75:c9:cc:4a:be:b6:4e:f8:48:24:b2:60:f5:
         7f:82:63:d3:e5:0c:d6:b4:19:97:60:b7:e6:df:d3:f3:d0:a0:
         ad:70:cc:6e:77:90:48:20:74:54:58:08:3e:af:1d:40:6c:0e:
         58:6a:bf:06:03:93:68:8b:1e:aa:5a:a1:46:73:90:60:01:c2:
         c6:bb:70:3c:59:db:a1:0a:32:04:52:d7:36:c5:09:5c:37:13:
         15:57:e7:34:62:64:30:02:c0:0a:09:93:51:6b:33:2c:fb:7e:
         5e:9f:2e:47:b6:0c:ee:e3:09:5d:05:44:ab:6d:db:da:64:02:
         cc:1e:3b:88:b6:56:48:03:3c:54:28:bb:fa:09:c1:d4:45:60:
         5a:1f:45:73:5d:11:aa:f2:9f:f4:61:d9:cc:1f:b5:8b:00:23:
         ca:e0:34:bd:4e:fc:a8:ef:46:2d:6c:69:53:d1:21:49:87:7e:
         e8:79:ab:61:31:65:3b:c7:8b:b7:65:f3:55:24:c7:85:fa:31:
         b1:12:85:e3:d5:20:0e:c8:71:b7:15:23:9f:c7:f1:a7:fe:07:
         c0:37:48:53:fc:36:43:71:02:56:41:d2:d8:2f:df:4d:c5:98:
         98:2a:51:fb
-----BEGIN CERTIFICATE-----
MIIDwDCCAqigAwIBAgIBATANBgkqhkiG9w0BAQsFADCBmzEwMC4GA1UEAwwnbWlu
ZHNxdWFyZSBMb2thbGUgWmVydGlmaXppZXJ1bmdzc3RlbGxlMQwwCgYDVQQIDANO
UlcxCzAJBgNVBAYTAkRFMSEwHwYJKoZIhvcNAQkBFhJpbmZvQG1pbmRzcXVhcmUu
ZGUxEzARBgNVBAoMCm1pbmRzcXVhcmUxFDASBgNVBAsMC0RldmVsb3BtZW50MB4X
DTIxMDIwMzE3MDYwNloXDTI2MDIwMjE3MDYwNloweTESMBAGA1UEAwwJbG9jYWxo
b3N0MQwwCgYDVQQIDANOUlcxCzAJBgNVBAYTAkRFMSEwHwYJKoZIhvcNAQkBFhJp
bmZvQG1pbmRzcXVhcmUuZGUxEzARBgNVBAoMCm1pbmRzcXVhcmUxEDAOBgNVBAsM
B2RlZmF1bHQwggEiMA0GCSqGSIb3DQEBAQUAA4IBDwAwggEKAoIBAQC8sifSvtFI
ScULiAYgkVRxLImGBsT92ltVYm8Q1zjf63CyapQUjxJkx5BDvYTrsODeiElLenl+
85CH06ohNw52Ir2o86iOM8IBn4Y2UVtE/It1fD+cIFsq3An5HjaUGKfRo3ZsOcIQ
UWZBEV/Nafc3ZRrxoR1/tYNGSpMKxi9pO/SrfgLGiSkRO6kkOZsT5rsnYlmN97KM
2TzL8kLL3oLe6GERGFbDqwQXpHyR3I8qdGY4h6aalLcUMmgZwqsjL8PMpkHcMNIb
oOssX3UpjACi5G+WYydS3xWTbKfl450KmI/cW79ikWl4kH+NM/m+BssgMibC7to+
LrgmNjv+czJlAgMBAAGjMDAuMAkGA1UdEwQCMAAwCwYDVR0PBAQDAgXgMBQGA1Ud
EQQNMAuCCWxvY2FsaG9zdDANBgkqhkiG9w0BAQsFAAOCAQEAuFwObdsGl2epmgZU
jITHjYRvD0gxxaN1ycxKvrZO+EgksmD1f4Jj0+UM1rQZl2C35t/T89CgrXDMbneQ
SCB0VFgIPq8dQGwOWGq/BgOTaIseqlqhRnOQYAHCxrtwPFnboQoyBFLXNsUJXDcT
FVfnNGJkMALACgmTUWszLPt+Xp8uR7YM7uMJXQVEq23b2mQCzB47iLZWSAM8VCi7
+gnB1EVgWh9Fc10RqvKf9GHZzB+1iwAjyuA0vU78qO9GLWxpU9EhSYd+6HmrYTFl
O8eLt2XzVSTHhfoxsRKF49UgDshxtxUjn8fxp/4HwDdIU/w2Q3ECVkHS2C/fTcWY
mCpR+w==
-----END CERTIFICATE-----
