Certificate:
    Data:
        Version: 3 (0x2)
        Serial Number: 1 (0x1)
        Signature Algorithm: sha256WithRSAEncryption
        Issuer: CN=mindsquare Lokale Zertifizierungsstelle, ST=NRW, C=DE/emailAddress=info@mindsquare.de, O=mindsquare, OU=Development
        Validity
            Not Before: Apr  1 13:38:49 2020 GMT
            Not After : Mar 31 13:38:49 2025 GMT
        Subject: CN=localhost, ST=NRW, C=DE/emailAddress=info@mindsquare.de, O=mindsquare, OU=Development
        Subject Public Key Info:
            Public Key Algorithm: rsaEncryption
                RSA Public-Key: (2048 bit)
                Modulus:
                    00:c2:1c:59:56:3f:c4:97:9a:fd:70:28:07:18:b5:
                    2d:ef:67:a2:e6:9b:6f:88:6e:97:13:dd:85:8b:44:
                    0d:5a:f8:a7:f6:cf:c2:27:11:47:2e:8e:3e:52:13:
                    74:d7:c6:f4:82:5e:1e:62:ca:16:97:3d:36:8f:f1:
                    01:34:df:23:5f:5e:10:eb:7a:ce:b6:38:30:22:cd:
                    1d:af:1f:61:79:b5:df:6c:94:6f:20:60:31:c2:f8:
                    24:e8:29:b0:d6:f3:28:f8:cd:91:fc:f3:61:25:89:
                    55:05:1c:0d:9b:ad:17:3f:2b:ec:b5:6e:67:f8:39:
                    17:82:db:36:f2:4b:bb:30:e5:5d:5e:27:4f:00:52:
                    00:20:bc:26:4c:1a:f1:dd:b3:93:8f:f3:9e:51:4e:
                    c0:5b:b0:fd:9e:59:9c:10:dc:cd:48:ae:10:12:25:
                    65:a4:ea:a8:04:6f:04:78:17:3e:2b:db:30:3f:dc:
                    a7:36:0e:87:c9:97:18:9a:6b:6f:f0:5a:1e:e4:42:
                    8c:cf:ca:59:01:e2:65:cc:c6:fa:a1:e3:a4:2c:d6:
                    08:af:bf:27:76:af:6a:d4:3a:00:3e:c1:b7:b9:24:
                    d6:a4:d4:18:02:80:20:f0:5b:f6:37:d5:5d:b8:db:
                    5b:88:a4:2b:c6:72:d6:24:a2:65:b9:ae:2d:89:ea:
                    1e:cf
                Exponent: 65537 (0x10001)
        X509v3 extensions:
            X509v3 Basic Constraints: 
                CA:FALSE
            X509v3 Key Usage: 
                Digital Signature, Non Repudiation, Key Encipherment
            X509v3 Subject Alternative Name: 
                DNS:localhost, DNS:mindsquare.local, DNS:mindsquare.de, DNS:blog.mindsquare.de, DNS:activate-hr.de, DNS:erlebe-software.de, DNS:maint-care.de, DNS:mind-force.de, DNS:mind-forms.de, DNS:mission-mobile.de, DNS:rz10.de, DNS:innotalent.de, DNS:wiki.mindsquare.de, DNS:pardb.mindsquare.de, DNS:compamind.de, DNS:mind-logistik.de, DNS:piumelli.de, DNS:timm-funke.de, DNS:consulting-y.de, DNS:personaleinsatzplanung.activate-hr.de, DNS:marketence.de, DNS:bonuskonditionen.de, DNS:www.freelancercheck.de, DNS:freelancercheck.de, DNS:customer-first-cloud.de, DNS:gesundheit-digitalisieren.de
    Signature Algorithm: sha256WithRSAEncryption
         cc:e7:45:5e:35:61:2e:2d:c2:6e:ef:1d:75:1a:4b:83:fa:02:
         12:21:49:c2:d3:b3:8c:1d:92:5f:ac:d1:a0:4b:17:92:cb:59:
         bf:fb:fb:95:ad:45:cf:3f:72:68:46:ed:2a:0b:9d:70:42:f7:
         dc:fd:2e:db:a5:2a:c7:ef:30:42:bc:3f:53:e5:e9:6d:4e:3b:
         ef:d2:60:34:16:60:2f:c3:55:8f:6e:64:11:4c:21:8c:3e:10:
         6a:8c:3c:d1:e3:19:f9:ee:07:20:c3:61:83:12:6a:0f:15:8b:
         4c:7f:38:14:94:ec:4d:5a:09:81:77:aa:b9:cf:de:8a:09:e1:
         2f:4f:61:6a:31:69:82:b4:55:b8:0f:da:32:14:be:f9:49:68:
         d0:bd:a8:69:ad:53:c7:ed:44:ce:8a:d2:bf:58:6e:0b:03:62:
         f3:88:d6:c4:85:ec:71:2f:8b:47:b1:11:a2:ee:7c:8b:a4:ea:
         ff:dc:98:1d:4a:6e:a5:4c:25:16:73:c3:7b:b8:23:60:ba:e5:
         56:b4:c0:7b:9b:51:9c:7d:5d:d1:1f:5c:bf:81:32:82:19:10:
         bd:27:65:26:51:ef:ff:21:99:73:fb:dc:71:7a:97:78:1e:25:
         fa:7a:5d:36:9b:8c:95:e5:8f:3d:af:82:4f:7a:af:3b:aa:40:
         57:48:4b:8a
-----BEGIN CERTIFICATE-----
MIIFozCCBIugAwIBAgIBATANBgkqhkiG9w0BAQsFADCBmzEwMC4GA1UEAwwnbWlu
ZHNxdWFyZSBMb2thbGUgWmVydGlmaXppZXJ1bmdzc3RlbGxlMQwwCgYDVQQIDANO
UlcxCzAJBgNVBAYTAkRFMSEwHwYJKoZIhvcNAQkBFhJpbmZvQG1pbmRzcXVhcmUu
ZGUxEzARBgNVBAoMCm1pbmRzcXVhcmUxFDASBgNVBAsMC0RldmVsb3BtZW50MB4X
DTIwMDQwMTEzMzg0OVoXDTI1MDMzMTEzMzg0OVowfTESMBAGA1UEAwwJbG9jYWxo
b3N0MQwwCgYDVQQIDANOUlcxCzAJBgNVBAYTAkRFMSEwHwYJKoZIhvcNAQkBFhJp
bmZvQG1pbmRzcXVhcmUuZGUxEzARBgNVBAoMCm1pbmRzcXVhcmUxFDASBgNVBAsM
C0RldmVsb3BtZW50MIIBIjANBgkqhkiG9w0BAQEFAAOCAQ8AMIIBCgKCAQEAwhxZ
Vj/El5r9cCgHGLUt72ei5ptviG6XE92Fi0QNWvin9s/CJxFHLo4+UhN018b0gl4e
YsoWlz02j/EBNN8jX14Q63rOtjgwIs0drx9hebXfbJRvIGAxwvgk6Cmw1vMo+M2R
/PNhJYlVBRwNm60XPyvstW5n+DkXgts28ku7MOVdXidPAFIAILwmTBrx3bOTj/Oe
UU7AW7D9nlmcENzNSK4QEiVlpOqoBG8EeBc+K9swP9ynNg6HyZcYmmtv8Foe5EKM
z8pZAeJlzMb6oeOkLNYIr78ndq9q1DoAPsG3uSTWpNQYAoAg8Fv2N9VduNtbiKQr
xnLWJKJlua4tieoezwIDAQABo4ICDTCCAgkwCQYDVR0TBAIwADALBgNVHQ8EBAMC
BeAwggHtBgNVHREEggHkMIIB4IIJbG9jYWxob3N0ghBtaW5kc3F1YXJlLmxvY2Fs
gg1taW5kc3F1YXJlLmRlghJibG9nLm1pbmRzcXVhcmUuZGWCDmFjdGl2YXRlLWhy
LmRlghJlcmxlYmUtc29mdHdhcmUuZGWCDW1haW50LWNhcmUuZGWCDW1pbmQtZm9y
Y2UuZGWCDW1pbmQtZm9ybXMuZGWCEW1pc3Npb24tbW9iaWxlLmRlggdyejEwLmRl
gg1pbm5vdGFsZW50LmRlghJ3aWtpLm1pbmRzcXVhcmUuZGWCE3BhcmRiLm1pbmRz
cXVhcmUuZGWCDGNvbXBhbWluZC5kZYIQbWluZC1sb2dpc3Rpay5kZYILcGl1bWVs
bGkuZGWCDXRpbW0tZnVua2UuZGWCD2NvbnN1bHRpbmcteS5kZYIlcGVyc29uYWxl
aW5zYXR6cGxhbnVuZy5hY3RpdmF0ZS1oci5kZYINbWFya2V0ZW5jZS5kZYITYm9u
dXNrb25kaXRpb25lbi5kZYIWd3d3LmZyZWVsYW5jZXJjaGVjay5kZYISZnJlZWxh
bmNlcmNoZWNrLmRlghdjdXN0b21lci1maXJzdC1jbG91ZC5kZYIcZ2VzdW5kaGVp
dC1kaWdpdGFsaXNpZXJlbi5kZTANBgkqhkiG9w0BAQsFAAOCAQEAzOdFXjVhLi3C
bu8ddRpLg/oCEiFJwtOzjB2SX6zRoEsXkstZv/v7la1Fzz9yaEbtKgudcEL33P0u
26Uqx+8wQrw/U+XpbU4779JgNBZgL8NVj25kEUwhjD4Qaow80eMZ+e4HIMNhgxJq
DxWLTH84FJTsTVoJgXequc/eignhL09hajFpgrRVuA/aMhS++Ulo0L2oaa1Tx+1E
zorSv1huCwNi84jWxIXscS+LR7ERou58i6Tq/9yYHUpupUwlFnPDe7gjYLrlVrTA
e5tRnH1d0R9cv4EyghkQvSdlJlHv/yGZc/vccXqXeB4l+npdNpuMleWPPa+CT3qv
O6pAV0hLig==
-----END CERTIFICATE-----
