Certificate:
    Data:
        Version: 3 (0x2)
        Serial Number: 2 (0x2)
    Signature Algorithm: sha256WithRSAEncryption
        Issuer: CN=mindsquare Lokale Zertifizierungsstelle, ST=NRW, C=DE/emailAddress=info@mindsquare.de, O=mindsquare, OU=Development
        Validity
            Not Before: Feb 21 15:14:58 2019 GMT
            Not After : Feb 20 15:14:58 2024 GMT
        Subject: CN=localhost, ST=NRW, C=DE/emailAddress=info@mindsquare.de, O=mindsquare, OU=Development
        Subject Public Key Info:
            Public Key Algorithm: rsaEncryption
                Public-Key: (2048 bit)
                Modulus:
                    00:de:5f:8b:3a:2c:ca:79:74:fd:66:7f:85:ba:39:
                    4e:83:5d:84:4d:d5:c3:73:87:52:2f:b6:e9:af:0a:
                    58:a4:dc:d3:14:8e:55:23:bc:1c:70:4f:6d:4c:3a:
                    4a:8a:53:b0:9d:61:50:b1:85:c0:4b:2e:58:0e:22:
                    de:fe:6c:2f:e7:6a:b6:60:36:53:23:73:4d:8c:30:
                    d7:36:c4:ff:c9:12:ef:34:1f:bf:37:64:6d:60:98:
                    d4:49:50:01:05:6f:8f:32:e1:9d:b0:e1:dd:98:b2:
                    d2:e5:3b:c0:d4:1e:e5:12:14:bf:d3:ba:91:f9:a2:
                    eb:11:55:07:fb:41:cb:96:f4:6f:fd:9f:08:8a:8e:
                    e2:db:d5:63:56:55:15:c7:05:08:6c:89:f2:1b:1e:
                    55:58:bf:6b:3c:f4:aa:8d:99:c3:f1:2a:20:16:c8:
                    d0:10:10:1c:03:04:92:91:40:f8:b0:a8:b0:ed:ad:
                    73:b7:ab:92:03:86:bc:77:67:c6:f1:a3:a0:82:e2:
                    55:c5:6a:6a:dc:d9:c3:64:60:4c:ce:95:93:c4:21:
                    1e:ae:49:90:cb:37:c4:67:42:74:68:7c:42:d4:f2:
                    64:60:12:7b:2a:bd:f2:94:b4:86:5f:83:7f:10:93:
                    f4:10:34:99:c9:cc:5f:90:50:30:2e:4a:ba:aa:1e:
                    e5:a1
                Exponent: 65537 (0x10001)
        X509v3 extensions:
            X509v3 Basic Constraints: 
                CA:FALSE
            X509v3 Key Usage: 
                Digital Signature, Non Repudiation, Key Encipherment
            X509v3 Subject Alternative Name: 
                DNS:localhost, DNS:mindsquare.local, DNS:mindsquare.de, DNS:blog.mindsquare.de, DNS:activate-hr.de, DNS:erlebe-software.de, DNS:maint-care.de, DNS:mind-force.de, DNS:mind-forms.de, DNS:mission-mobile.de, DNS:rz10.de, DNS:innotalent.de, DNS:wiki.mindsquare.de, DNS:pardb.mindsquare.de, DNS:compamind.de, DNS:mind-logistik.de, DNS:piumelli.de, DNS:timm-funke.de, DNS:consulting-y.de, DNS:personaleinsatzplanung.activate-hr.de, DNS:marketence.de, DNS:bonuskonditionen.de, DNS:www.freelancercheck.de, DNS:freelancercheck.de, DNS:customer-first-cloud.de
    Signature Algorithm: sha256WithRSAEncryption
         a2:b8:7f:4c:4b:9b:f3:2a:77:d1:c8:33:7f:da:b7:38:78:b6:
         09:ea:75:23:de:c2:65:6d:74:0c:48:28:50:64:15:a6:4f:b8:
         50:e8:ee:b4:21:4b:77:8d:10:62:b5:e6:e1:4a:89:6f:20:57:
         51:92:52:ef:03:f6:3f:36:31:c1:4d:73:9e:9b:6c:c3:4a:35:
         61:93:37:2f:46:f7:4b:42:89:45:7a:ab:fd:1c:d5:ce:e5:a9:
         02:56:d9:32:6a:ca:fc:48:be:c3:9b:37:f5:d2:06:ce:f5:ef:
         d7:b8:07:bf:b6:9f:0f:6d:c5:f2:6b:3b:8d:d2:32:63:d9:ed:
         dd:e1:d3:65:40:e2:b3:34:31:83:34:57:22:aa:88:e9:24:d8:
         04:07:73:62:a9:77:e7:f8:f1:df:68:f8:d5:1f:2e:46:04:ff:
         81:ae:14:1a:ea:6d:e2:ec:5f:df:f5:02:19:2a:e8:34:20:67:
         ba:8d:52:f2:1c:17:60:76:0a:6f:2d:7d:93:3a:73:83:02:7e:
         5a:6c:33:30:5f:92:d3:61:fe:27:d3:db:a7:4d:59:75:e6:6c:
         0e:04:d2:34:64:99:fd:85:c5:b8:ec:19:b0:dd:cf:a7:e8:04:
         9a:94:31:51:f2:93:f6:94:4d:aa:e5:98:3c:f9:80:8d:db:7e:
         14:de:c5:4c
-----BEGIN CERTIFICATE-----
MIIFhTCCBG2gAwIBAgIBAjANBgkqhkiG9w0BAQsFADCBmzEwMC4GA1UEAwwnbWlu
ZHNxdWFyZSBMb2thbGUgWmVydGlmaXppZXJ1bmdzc3RlbGxlMQwwCgYDVQQIDANO
UlcxCzAJBgNVBAYTAkRFMSEwHwYJKoZIhvcNAQkBFhJpbmZvQG1pbmRzcXVhcmUu
ZGUxEzARBgNVBAoMCm1pbmRzcXVhcmUxFDASBgNVBAsMC0RldmVsb3BtZW50MB4X
DTE5MDIyMTE1MTQ1OFoXDTI0MDIyMDE1MTQ1OFowfTESMBAGA1UEAwwJbG9jYWxo
b3N0MQwwCgYDVQQIDANOUlcxCzAJBgNVBAYTAkRFMSEwHwYJKoZIhvcNAQkBFhJp
bmZvQG1pbmRzcXVhcmUuZGUxEzARBgNVBAoMCm1pbmRzcXVhcmUxFDASBgNVBAsM
C0RldmVsb3BtZW50MIIBIjANBgkqhkiG9w0BAQEFAAOCAQ8AMIIBCgKCAQEA3l+L
OizKeXT9Zn+FujlOg12ETdXDc4dSL7bprwpYpNzTFI5VI7wccE9tTDpKilOwnWFQ
sYXASy5YDiLe/mwv52q2YDZTI3NNjDDXNsT/yRLvNB+/N2RtYJjUSVABBW+PMuGd
sOHdmLLS5TvA1B7lEhS/07qR+aLrEVUH+0HLlvRv/Z8Iio7i29VjVlUVxwUIbIny
Gx5VWL9rPPSqjZnD8SogFsjQEBAcAwSSkUD4sKiw7a1zt6uSA4a8d2fG8aOgguJV
xWpq3NnDZGBMzpWTxCEerkmQyzfEZ0J0aHxC1PJkYBJ7Kr3ylLSGX4N/EJP0EDSZ
ycxfkFAwLkq6qh7loQIDAQABo4IB7zCCAeswCQYDVR0TBAIwADALBgNVHQ8EBAMC
BeAwggHPBgNVHREEggHGMIIBwoIJbG9jYWxob3N0ghBtaW5kc3F1YXJlLmxvY2Fs
gg1taW5kc3F1YXJlLmRlghJibG9nLm1pbmRzcXVhcmUuZGWCDmFjdGl2YXRlLWhy
LmRlghJlcmxlYmUtc29mdHdhcmUuZGWCDW1haW50LWNhcmUuZGWCDW1pbmQtZm9y
Y2UuZGWCDW1pbmQtZm9ybXMuZGWCEW1pc3Npb24tbW9iaWxlLmRlggdyejEwLmRl
gg1pbm5vdGFsZW50LmRlghJ3aWtpLm1pbmRzcXVhcmUuZGWCE3BhcmRiLm1pbmRz
cXVhcmUuZGWCDGNvbXBhbWluZC5kZYIQbWluZC1sb2dpc3Rpay5kZYILcGl1bWVs
bGkuZGWCDXRpbW0tZnVua2UuZGWCD2NvbnN1bHRpbmcteS5kZYIlcGVyc29uYWxl
aW5zYXR6cGxhbnVuZy5hY3RpdmF0ZS1oci5kZYINbWFya2V0ZW5jZS5kZYITYm9u
dXNrb25kaXRpb25lbi5kZYIWd3d3LmZyZWVsYW5jZXJjaGVjay5kZYISZnJlZWxh
bmNlcmNoZWNrLmRlghdjdXN0b21lci1maXJzdC1jbG91ZC5kZTANBgkqhkiG9w0B
AQsFAAOCAQEAorh/TEub8yp30cgzf9q3OHi2Cep1I97CZW10DEgoUGQVpk+4UOju
tCFLd40QYrXm4UqJbyBXUZJS7wP2PzYxwU1znptsw0o1YZM3L0b3S0KJRXqr/RzV
zuWpAlbZMmrK/Ei+w5s39dIGzvXv17gHv7afD23F8ms7jdIyY9nt3eHTZUDiszQx
gzRXIqqI6STYBAdzYql35/jx32j41R8uRgT/ga4UGupt4uxf3/UCGSroNCBnuo1S
8hwXYHYKby19kzpzgwJ+WmwzMF+S02H+J9Pbp01ZdeZsDgTSNGSZ/YXFuOwZsN3P
p+gEmpQxUfKT9pRNquWYPPmAjdt+FN7FTA==
-----END CERTIFICATE-----
