Certificate:
    Data:
        Version: 3 (0x2)
        Serial Number: 1 (0x1)
        Signature Algorithm: sha256WithRSAEncryption
        Issuer: CN=mindsquare Lokale Zertifizierungsstelle, ST=NRW, C=DE/emailAddress=info@mindsquare.de, O=mindsquare, OU=Development
        Validity
            Not Before: May 18 16:07:39 2020 GMT
            Not After : May 17 16:07:39 2025 GMT
        Subject: CN=localhost, ST=NRW, C=DE/emailAddress=info@mindsquare.de, O=mindsquare, OU=Development
        Subject Public Key Info:
            Public Key Algorithm: rsaEncryption
                RSA Public-Key: (2048 bit)
                Modulus:
                    00:cb:ed:ff:78:5a:ee:6c:f9:c0:ff:8d:18:5a:da:
                    be:d4:20:d9:00:3e:f7:a5:62:2d:e1:f6:7d:49:24:
                    64:27:c7:2f:a7:25:19:55:58:dd:d2:a1:4e:fb:fb:
                    f6:5e:fb:2b:4a:a4:f7:2c:97:6e:df:57:e5:f3:9d:
                    55:07:c7:91:76:fe:8b:9b:6d:23:cc:5b:f3:f2:13:
                    21:cf:06:54:8b:cc:02:ff:31:6b:f1:d7:10:50:31:
                    5c:31:1d:8f:04:3b:d2:3a:88:36:c6:eb:37:b3:85:
                    36:c7:86:64:b4:08:46:04:d7:a0:d1:da:85:60:e5:
                    98:6c:fd:6f:12:21:81:3d:fb:ac:7f:86:43:80:56:
                    a8:7b:f6:f3:e4:b0:e5:1b:66:e1:fe:43:23:69:ca:
                    d2:ac:ed:ee:11:22:f2:2c:04:24:0f:b4:38:75:80:
                    a5:41:44:96:02:2b:17:f3:b8:e7:24:a7:36:4f:67:
                    75:ea:05:08:c5:21:df:27:31:86:a1:3a:9e:1b:ec:
                    9b:d7:bc:fe:20:44:7c:83:2c:56:8c:43:49:97:a1:
                    06:10:15:84:69:00:69:ac:d9:a9:7e:34:0d:05:75:
                    14:08:e0:98:e1:a0:d6:b9:59:8f:bd:ab:e4:9f:62:
                    e9:77:41:8d:3c:97:29:cc:ad:43:73:04:f2:68:09:
                    35:f3
                Exponent: 65537 (0x10001)
        X509v3 extensions:
            X509v3 Basic Constraints: 
                CA:FALSE
            X509v3 Key Usage: 
                Digital Signature, Non Repudiation, Key Encipherment
            X509v3 Subject Alternative Name: 
                DNS:localhost, DNS:mindsquare.local, DNS:mindsquare.de, DNS:blog.mindsquare.de, DNS:activate-hr.de, DNS:erlebe-software.de, DNS:maint-care.de, DNS:mind-force.de, DNS:mind-forms.de, DNS:mission-mobile.de, DNS:rz10.de, DNS:innotalent.de, DNS:wiki.mindsquare.de, DNS:pardb.mindsquare.de, DNS:compamind.de, DNS:mind-logistik.de, DNS:piumelli.de, DNS:timm-funke.de, DNS:consulting-y.de, DNS:personaleinsatzplanung.activate-hr.de, DNS:marketence.de, DNS:bonuskonditionen.de, DNS:www.freelancercheck.de, DNS:freelancercheck.de, DNS:customer-first-cloud.de, DNS:gesundheit-digitalisieren.de, DNS:energie-digitalisieren.de
    Signature Algorithm: sha256WithRSAEncryption
         42:c8:d3:58:8a:21:60:52:18:d8:a1:72:7f:cf:48:9f:b0:aa:
         d3:05:08:57:fa:c5:8f:2a:0a:42:62:d4:68:eb:ff:80:08:e6:
         1c:90:da:5c:7c:2e:57:0e:80:26:9c:5a:ad:1b:af:b4:a3:10:
         0d:d7:10:52:26:36:0f:93:cf:f4:7e:b7:84:d5:af:de:d5:fa:
         b1:02:b6:15:f4:a4:95:2b:6c:9a:cd:12:14:9e:ee:01:fc:44:
         5d:38:da:89:2f:fc:98:dc:bd:22:c6:00:32:3e:39:ef:eb:10:
         45:c8:5a:88:0b:e3:cc:33:d2:32:4e:45:7f:8e:17:8b:0a:88:
         39:14:b3:26:b0:8d:dd:2f:21:3d:6c:55:14:ec:02:94:d5:67:
         01:b0:dc:ff:4d:de:08:7a:95:e9:5a:6c:c5:61:ed:09:31:f7:
         ef:3e:e4:1d:fb:fb:62:cd:06:6e:b0:98:a9:70:38:d3:f5:14:
         0e:86:b8:2a:e6:17:d6:c7:cd:78:74:0e:71:41:1a:26:54:74:
         e1:12:29:cf:0d:99:86:fc:f3:2c:48:d5:23:19:c1:f5:aa:a1:
         5b:be:0c:f8:c4:3f:40:70:ca:8b:a0:a3:6c:b1:46:24:7c:0d:
         cd:02:b4:61:94:e7:6a:1a:8a:b0:d9:b4:5c:d9:48:a8:88:7c:
         74:60:15:7f
-----BEGIN CERTIFICATE-----
MIIFvjCCBKagAwIBAgIBATANBgkqhkiG9w0BAQsFADCBmzEwMC4GA1UEAwwnbWlu
ZHNxdWFyZSBMb2thbGUgWmVydGlmaXppZXJ1bmdzc3RlbGxlMQwwCgYDVQQIDANO
UlcxCzAJBgNVBAYTAkRFMSEwHwYJKoZIhvcNAQkBFhJpbmZvQG1pbmRzcXVhcmUu
ZGUxEzARBgNVBAoMCm1pbmRzcXVhcmUxFDASBgNVBAsMC0RldmVsb3BtZW50MB4X
DTIwMDUxODE2MDczOVoXDTI1MDUxNzE2MDczOVowfTESMBAGA1UEAwwJbG9jYWxo
b3N0MQwwCgYDVQQIDANOUlcxCzAJBgNVBAYTAkRFMSEwHwYJKoZIhvcNAQkBFhJp
bmZvQG1pbmRzcXVhcmUuZGUxEzARBgNVBAoMCm1pbmRzcXVhcmUxFDASBgNVBAsM
C0RldmVsb3BtZW50MIIBIjANBgkqhkiG9w0BAQEFAAOCAQ8AMIIBCgKCAQEAy+3/
eFrubPnA/40YWtq+1CDZAD73pWIt4fZ9SSRkJ8cvpyUZVVjd0qFO+/v2XvsrSqT3
LJdu31fl851VB8eRdv6Lm20jzFvz8hMhzwZUi8wC/zFr8dcQUDFcMR2PBDvSOog2
xus3s4U2x4ZktAhGBNeg0dqFYOWYbP1vEiGBPfusf4ZDgFaoe/bz5LDlG2bh/kMj
acrSrO3uESLyLAQkD7Q4dYClQUSWAisX87jnJKc2T2d16gUIxSHfJzGGoTqeG+yb
17z+IER8gyxWjENJl6EGEBWEaQBprNmpfjQNBXUUCOCY4aDWuVmPvavkn2Lpd0GN
PJcpzK1DcwTyaAk18wIDAQABo4ICKDCCAiQwCQYDVR0TBAIwADALBgNVHQ8EBAMC
BeAwggIIBgNVHREEggH/MIIB+4IJbG9jYWxob3N0ghBtaW5kc3F1YXJlLmxvY2Fs
gg1taW5kc3F1YXJlLmRlghJibG9nLm1pbmRzcXVhcmUuZGWCDmFjdGl2YXRlLWhy
LmRlghJlcmxlYmUtc29mdHdhcmUuZGWCDW1haW50LWNhcmUuZGWCDW1pbmQtZm9y
Y2UuZGWCDW1pbmQtZm9ybXMuZGWCEW1pc3Npb24tbW9iaWxlLmRlggdyejEwLmRl
gg1pbm5vdGFsZW50LmRlghJ3aWtpLm1pbmRzcXVhcmUuZGWCE3BhcmRiLm1pbmRz
cXVhcmUuZGWCDGNvbXBhbWluZC5kZYIQbWluZC1sb2dpc3Rpay5kZYILcGl1bWVs
bGkuZGWCDXRpbW0tZnVua2UuZGWCD2NvbnN1bHRpbmcteS5kZYIlcGVyc29uYWxl
aW5zYXR6cGxhbnVuZy5hY3RpdmF0ZS1oci5kZYINbWFya2V0ZW5jZS5kZYITYm9u
dXNrb25kaXRpb25lbi5kZYIWd3d3LmZyZWVsYW5jZXJjaGVjay5kZYISZnJlZWxh
bmNlcmNoZWNrLmRlghdjdXN0b21lci1maXJzdC1jbG91ZC5kZYIcZ2VzdW5kaGVp
dC1kaWdpdGFsaXNpZXJlbi5kZYIZZW5lcmdpZS1kaWdpdGFsaXNpZXJlbi5kZTAN
BgkqhkiG9w0BAQsFAAOCAQEAQsjTWIohYFIY2KFyf89In7Cq0wUIV/rFjyoKQmLU
aOv/gAjmHJDaXHwuVw6AJpxarRuvtKMQDdcQUiY2D5PP9H63hNWv3tX6sQK2FfSk
lStsms0SFJ7uAfxEXTjaiS/8mNy9IsYAMj457+sQRchaiAvjzDPSMk5Ff44XiwqI
ORSzJrCN3S8hPWxVFOwClNVnAbDc/03eCHqV6VpsxWHtCTH37z7kHfv7Ys0GbrCY
qXA40/UUDoa4KuYX1sfNeHQOcUEaJlR04RIpzw2ZhvzzLEjVIxnB9aqhW74M+MQ/
QHDKi6CjbLFGJHwNzQK0YZTnahqKsNm0XNlIqIh8dGAVfw==
-----END CERTIFICATE-----
